; Function Attrs: mustprogress noreturn uwtable
define hidden void @_ZN4cvc58internal6theory2bv16TheoryBVRewriter16UndefinedRewriteENS0_12NodeTemplateILb0EEEb(ptr noalias nocapture readnone sret(%"struct.cvc5::internal::theory::RewriteResponse") align 8 %agg.result, ptr nocapture noundef readonly %node, i1 noundef zeroext %prerewrite) local_unnamed_addr #6 align 2 personality ptr @__gxx_personality_v0 {
cond.end:
  %ref.tmp4 = alloca %"class.cvc5::internal::FatalStream", align 1
  call void @_ZN4cvc58internal11FatalStreamC1EPKcS3_i(ptr noundef nonnull align 1 dereferenceable(1) %ref.tmp4, ptr noundef nonnull @__PRETTY_FUNCTION__._ZN4cvc58internal6theory2bv16TheoryBVRewriter16UndefinedRewriteENS0_12NodeTemplateILb0EEEb, ptr noundef nonnull @.str.5, i32 noundef 717)
  %call5 = invoke noundef nonnull align 8 dereferenceable(8) ptr @_ZN4cvc58internal11FatalStream6streamEv(ptr noundef nonnull align 1 dereferenceable(1) %ref.tmp4)
          to label %invoke.cont unwind label %lpad

invoke.cont:                                      ; preds = %cond.end
  %call7 = invoke noundef nonnull align 8 dereferenceable(8) ptr @_ZStlsISt11char_traitsIcEERSt13basic_ostreamIcT_ES5_PKc(ptr noundef nonnull align 8 dereferenceable(8) %call5, ptr noundef nonnull @.str.6)
          to label %invoke.cont6 unwind label %lpad

invoke.cont6:                                     ; preds = %invoke.cont
  call void @_ZN4cvc58internal11FatalStreamD1Ev(ptr noundef nonnull align 1 dereferenceable(1) %ref.tmp4) #19
  unreachable

lpad:                                             ; preds = %invoke.cont, %cond.end
  %0 = landingpad { ptr, i32 }
          cleanup
  call void @_ZN4cvc58internal11FatalStreamD1Ev(ptr noundef nonnull align 1 dereferenceable(1) %ref.tmp4) #19
  unreachable
}